target datalayout = "e-m:e-p270:32:32-p271:32:32-p272:64:64-i64:64-i128:128-f80:128-n8:16:32:64-S128"
target triple = "x86_64-pc-linux-gnu"

%struct.strvec = type { ptr, i64, i64 }
%struct.object_id = type { [32 x i8], i32 }
%struct.repository = type { ptr, ptr, ptr, ptr, ptr, %struct.strmap, %struct.strmap, %struct.repo_path_cache, ptr, ptr, ptr, ptr, %struct.repo_settings, ptr, ptr, ptr, ptr, ptr, ptr, i32, i32, i32, ptr, ptr, i32, i32, i8 }
%struct.strmap = type { %struct.hashmap, ptr, i8 }
%struct.hashmap = type { ptr, ptr, ptr, i32, i32, i32, i32, i8 }
%struct.repo_path_cache = type { ptr, ptr, ptr, ptr, ptr, ptr, ptr }
%struct.repo_settings = type { i32, i32, i32, i32, i32, i32, i32, i32, i32, i32, i32, i32, ptr, i32, i32, i32, i32, i32, i32, i32, i64, i64, i64 }
%struct.string_list = type { ptr, i64, i64, i8, ptr }
%struct.lock_file = type { ptr }
%struct.object = type { i32, %struct.object_id }
%struct.tree = type { %struct.object, ptr, i64 }
%struct.unpack_trees_options = type { i32, i32, i32, i32, i32, i32, i32, i32, i32, i32, i32, i32, i32, i32, i32, i32, i32, ptr, ptr, ptr, ptr, i32, ptr, ptr, ptr, ptr, %struct.checkout_metadata, %struct.unpack_trees_options_internal }
%struct.checkout_metadata = type { ptr, %struct.object_id, %struct.object_id }
%struct.unpack_trees_options_internal = type { i32, i32, i32, i32, i32, [12 x ptr], %struct.strvec, [12 x %struct.string_list], %struct.index_state, ptr, ptr }
%struct.index_state = type { ptr, i32, i32, i32, i32, ptr, ptr, ptr, %struct.cache_time, i8, i32, %struct.hashmap, %struct.hashmap, %struct.object_id, ptr, ptr, ptr, ptr, ptr, ptr, ptr }
%struct.cache_time = type { i32, i32 }
%struct.tree_desc = type { ptr, ptr, %struct.name_entry, i32, i32 }
%struct.name_entry = type { %struct.object_id, ptr, i32, i32 }

@the_repository = external global ptr, align 8
@.str.266 = private unnamed_addr constant [31 x i8] c"unable to write new index file\00", align 1

; Function Attrs: inlinehint nounwind uwtable
define internal i32 @rollback_lock_file(ptr noundef %0) #5 {
  %2 = alloca ptr, align 8
  store ptr %0, ptr %2, align 8, !tbaa !237
  %3 = load ptr, ptr %2, align 8, !tbaa !237
  %4 = getelementptr inbounds nuw %struct.lock_file, ptr %3, i32 0, i32 0
  %5 = call i32 @delete_tempfile(ptr noundef %4)
  ret i32 %5
}

; Function Attrs: inlinehint nounwind uwtable
define internal i32 @parse_tree(ptr noundef %0) #5 {
  %2 = alloca ptr, align 8
  store ptr %0, ptr %2, align 8, !tbaa !208
  %3 = load ptr, ptr %2, align 8, !tbaa !208
  %4 = call i32 @parse_tree_gently(ptr noundef %3, i32 noundef 0)
  ret i32 %4
}

; Function Attrs: nounwind uwtable
define internal i32 @fast_forward_to(ptr noundef %0, ptr noundef %1, i32 noundef %2) #0 {
  %4 = alloca i32, align 4
  %5 = alloca ptr, align 8
  %6 = alloca ptr, align 8
  %7 = alloca i32, align 4
  %8 = alloca %struct.lock_file, align 8
  %9 = alloca %struct.unpack_trees_options, align 8
  %10 = alloca [2 x %struct.tree_desc], align 16
  %11 = alloca i32, align 4
  store ptr %0, ptr %5, align 8, !tbaa !208
  store ptr %1, ptr %6, align 8, !tbaa !208
  store i32 %2, ptr %7, align 4, !tbaa !4
  call void @llvm.lifetime.start.p0(i64 8, ptr %8) #14
  call void @llvm.memset.p0.i64(ptr align 8 %8, i8 0, i64 8, i1 false)
  call void @llvm.lifetime.start.p0(i64 1120, ptr %9) #14
  call void @llvm.lifetime.start.p0(i64 160, ptr %10) #14
  %12 = load ptr, ptr %5, align 8, !tbaa !208
  %13 = call i32 @parse_tree(ptr noundef %12)
  %14 = icmp ne i32 %13, 0
  br i1 %14, label %19, label %15

15:                                               ; preds = %3
  %16 = load ptr, ptr %6, align 8, !tbaa !208
  %17 = call i32 @parse_tree(ptr noundef %16)
  %18 = icmp ne i32 %17, 0
  br i1 %18, label %19, label %20

19:                                               ; preds = %15, %3
  store i32 -1, ptr %4, align 4
  store i32 1, ptr %11, align 4
  br label %78

20:                                               ; preds = %15
  %21 = load ptr, ptr @the_repository, align 8, !tbaa !13
  %22 = call i32 @repo_hold_locked_index(ptr noundef %21, ptr noundef %8, i32 noundef 1)
  %23 = load ptr, ptr @the_repository, align 8, !tbaa !13
  %24 = getelementptr inbounds nuw %struct.repository, ptr %23, i32 0, i32 15
  %25 = load ptr, ptr %24, align 8, !tbaa !93
  %26 = call i32 @refresh_index(ptr noundef %25, i32 noundef 4, ptr noundef null, ptr noundef null, ptr noundef null)
  call void @llvm.memset.p0.i64(ptr align 8 %9, i8 0, i64 1120, i1 false)
  %27 = getelementptr inbounds nuw %struct.unpack_trees_options, ptr %9, i32 0, i32 21
  store i32 1, ptr %27, align 8, !tbaa !210
  %28 = load ptr, ptr @the_repository, align 8, !tbaa !13
  %29 = getelementptr inbounds nuw %struct.repository, ptr %28, i32 0, i32 15
  %30 = load ptr, ptr %29, align 8, !tbaa !93
  %31 = getelementptr inbounds nuw %struct.unpack_trees_options, ptr %9, i32 0, i32 25
  store ptr %30, ptr %31, align 8, !tbaa !226
  %32 = load ptr, ptr @the_repository, align 8, !tbaa !13
  %33 = getelementptr inbounds nuw %struct.repository, ptr %32, i32 0, i32 15
  %34 = load ptr, ptr %33, align 8, !tbaa !93
  %35 = getelementptr inbounds nuw %struct.unpack_trees_options, ptr %9, i32 0, i32 24
  store ptr %34, ptr %35, align 8, !tbaa !227
  %36 = getelementptr inbounds nuw %struct.unpack_trees_options, ptr %9, i32 0, i32 1
  store i32 1, ptr %36, align 4, !tbaa !228
  %37 = getelementptr inbounds nuw %struct.unpack_trees_options, ptr %9, i32 0, i32 0
  store i32 1, ptr %37, align 8, !tbaa !229
  %38 = load i32, ptr %7, align 4, !tbaa !4
  %39 = icmp ne i32 %38, 0
  %40 = select i1 %39, i32 2, i32 0
  %41 = getelementptr inbounds nuw %struct.unpack_trees_options, ptr %9, i32 0, i32 16
  store i32 %40, ptr %41, align 8, !tbaa !230
  %42 = getelementptr inbounds nuw %struct.unpack_trees_options, ptr %9, i32 0, i32 2
  store i32 0, ptr %42, align 8, !tbaa !231
  %43 = getelementptr inbounds nuw %struct.unpack_trees_options, ptr %9, i32 0, i32 20
  store ptr @twoway_merge, ptr %43, align 8, !tbaa !232
  %44 = getelementptr inbounds [2 x %struct.tree_desc], ptr %10, i64 0, i64 0
  %45 = load ptr, ptr %5, align 8, !tbaa !208
  %46 = getelementptr inbounds nuw %struct.tree, ptr %45, i32 0, i32 0
  %47 = getelementptr inbounds nuw %struct.object, ptr %46, i32 0, i32 1
  %48 = load ptr, ptr %5, align 8, !tbaa !208
  %49 = getelementptr inbounds nuw %struct.tree, ptr %48, i32 0, i32 1
  %50 = load ptr, ptr %49, align 8, !tbaa !233
  %51 = load ptr, ptr %5, align 8, !tbaa !208
  %52 = getelementptr inbounds nuw %struct.tree, ptr %51, i32 0, i32 2
  %53 = load i64, ptr %52, align 8, !tbaa !236
  call void @init_tree_desc(ptr noundef %44, ptr noundef %47, ptr noundef %50, i64 noundef %53)
  %54 = getelementptr inbounds [2 x %struct.tree_desc], ptr %10, i64 0, i64 1
  %55 = load ptr, ptr %6, align 8, !tbaa !208
  %56 = getelementptr inbounds nuw %struct.tree, ptr %55, i32 0, i32 0
  %57 = getelementptr inbounds nuw %struct.object, ptr %56, i32 0, i32 1
  %58 = load ptr, ptr %6, align 8, !tbaa !208
  %59 = getelementptr inbounds nuw %struct.tree, ptr %58, i32 0, i32 1
  %60 = load ptr, ptr %59, align 8, !tbaa !233
  %61 = load ptr, ptr %6, align 8, !tbaa !208
  %62 = getelementptr inbounds nuw %struct.tree, ptr %61, i32 0, i32 2
  %63 = load i64, ptr %62, align 8, !tbaa !236
  call void @init_tree_desc(ptr noundef %54, ptr noundef %57, ptr noundef %60, i64 noundef %63)
  %64 = getelementptr inbounds [2 x %struct.tree_desc], ptr %10, i64 0, i64 0
  %65 = call i32 @unpack_trees(i32 noundef 2, ptr noundef %64, ptr noundef %9)
  %66 = icmp ne i32 %65, 0
  br i1 %66, label %67, label %69

67:                                               ; preds = %20
  %68 = call i32 @rollback_lock_file(ptr noundef %8)
  store i32 -1, ptr %4, align 4
  store i32 1, ptr %11, align 4
  br label %78

69:                                               ; preds = %20
  %70 = load ptr, ptr @the_repository, align 8, !tbaa !13
  %71 = getelementptr inbounds nuw %struct.repository, ptr %70, i32 0, i32 15
  %72 = load ptr, ptr %71, align 8, !tbaa !93
  %73 = call i32 @write_locked_index(ptr noundef %72, ptr noundef %8, i32 noundef 1)
  %74 = icmp ne i32 %73, 0
  br i1 %74, label %75, label %77

75:                                               ; preds = %69
  %76 = call ptr @_(ptr noundef @.str.266)
  call void (ptr, ...) @die(ptr noundef %76) #15
  unreachable

77:                                               ; preds = %69
  store i32 0, ptr %4, align 4
  store i32 1, ptr %11, align 4
  br label %78

78:                                               ; preds = %77, %67, %19
  call void @llvm.lifetime.end.p0(i64 160, ptr %10) #14
  call void @llvm.lifetime.end.p0(i64 1120, ptr %9) #14
  call void @llvm.lifetime.end.p0(i64 8, ptr %8) #14
  %79 = load i32, ptr %4, align 4
  ret i32 %79
}