; Function Attrs: nounwind uwtable
define internal fastcc range(i32 -1, 1) i32 @fast_forward_to(ptr noundef nonnull %0, ptr noundef nonnull %1, i32 noundef range(i32 0, 2) %2) unnamed_addr #0 {
  %4 = alloca %struct.lock_file, align 8
  %5 = alloca %struct.unpack_trees_options, align 8
  %6 = alloca [2 x %struct.tree_desc], align 16
  call void @llvm.lifetime.start.p0(i64 8, ptr nonnull %4) #21
  store i64 0, ptr %4, align 8
  call void @llvm.lifetime.start.p0(i64 1120, ptr nonnull %5) #21
  call void @llvm.lifetime.start.p0(i64 160, ptr nonnull %6) #21
  %7 = tail call i32 @parse_tree_gently(ptr noundef nonnull %0, i32 noundef 0) #21
  %.not = icmp eq i32 %7, 0
  br i1 %.not, label %8, label %49

8:                                                ; preds = %3
  %9 = tail call i32 @parse_tree_gently(ptr noundef nonnull %1, i32 noundef 0) #21
  %.not9 = icmp eq i32 %9, 0
  br i1 %.not9, label %10, label %49

10:                                               ; preds = %8
  %11 = load ptr, ptr @the_repository, align 8, !tbaa !21
  %12 = call i32 @repo_hold_locked_index(ptr noundef %11, ptr noundef nonnull %4, i32 noundef 1) #21
  %13 = load ptr, ptr @the_repository, align 8, !tbaa !21
  %14 = getelementptr inbounds nuw i8, ptr %13, i64 384
  %15 = load ptr, ptr %14, align 8, !tbaa !64
  %16 = call i32 @refresh_index(ptr noundef %15, i32 noundef 4, ptr noundef null, ptr noundef null, ptr noundef null) #21
  %17 = getelementptr inbounds nuw i8, ptr %5, i64 8
  call void @llvm.memset.p0.i64(ptr noundef nonnull align 8 dereferenceable(1120) %17, i8 0, i64 1112, i1 false)
  %18 = getelementptr inbounds nuw i8, ptr %5, i64 104
  store i32 1, ptr %18, align 8, !tbaa !187
  %19 = load ptr, ptr @the_repository, align 8, !tbaa !21
  %20 = getelementptr inbounds nuw i8, ptr %19, i64 384
  %21 = load ptr, ptr %20, align 8, !tbaa !64
  %22 = getelementptr inbounds nuw i8, ptr %5, i64 136
  store ptr %21, ptr %22, align 8, !tbaa !203
  %23 = getelementptr inbounds nuw i8, ptr %5, i64 128
  store ptr %21, ptr %23, align 8, !tbaa !204
  %24 = getelementptr inbounds nuw i8, ptr %5, i64 4
  store i32 1, ptr %24, align 4, !tbaa !205
  store i32 1, ptr %5, align 8, !tbaa !206
  %.not10 = icmp eq i32 %2, 0
  %25 = select i1 %.not10, i32 0, i32 2
  %26 = getelementptr inbounds nuw i8, ptr %5, i64 64
  store i32 %25, ptr %26, align 8, !tbaa !207
  %27 = getelementptr inbounds nuw i8, ptr %5, i64 96
  store ptr @twoway_merge, ptr %27, align 8, !tbaa !208
  %28 = getelementptr inbounds nuw i8, ptr %0, i64 4
  %29 = getelementptr inbounds nuw i8, ptr %0, i64 40
  %30 = load ptr, ptr %29, align 8, !tbaa !209
  %31 = getelementptr inbounds nuw i8, ptr %0, i64 48
  %32 = load i64, ptr %31, align 8, !tbaa !212
  call void @init_tree_desc(ptr noundef nonnull %6, ptr noundef nonnull %28, ptr noundef %30, i64 noundef %32) #21
  %33 = getelementptr inbounds nuw i8, ptr %6, i64 80
  %34 = getelementptr inbounds nuw i8, ptr %1, i64 4
  %35 = getelementptr inbounds nuw i8, ptr %1, i64 40
  %36 = load ptr, ptr %35, align 8, !tbaa !209
  %37 = getelementptr inbounds nuw i8, ptr %1, i64 48
  %38 = load i64, ptr %37, align 8, !tbaa !212
  call void @init_tree_desc(ptr noundef nonnull %33, ptr noundef nonnull %34, ptr noundef %36, i64 noundef %38) #21
  %39 = call i32 @unpack_trees(i32 noundef 2, ptr noundef nonnull %6, ptr noundef nonnull %5) #21
  %.not11 = icmp eq i32 %39, 0
  br i1 %.not11, label %42, label %40

40:                                               ; preds = %10
  %41 = call i32 @delete_tempfile(ptr noundef nonnull %4) #21
  br label %49

42:                                               ; preds = %10
  %43 = load ptr, ptr @the_repository, align 8, !tbaa !21
  %44 = getelementptr inbounds nuw i8, ptr %43, i64 384
  %45 = load ptr, ptr %44, align 8, !tbaa !64
  %46 = call i32 @write_locked_index(ptr noundef %45, ptr noundef nonnull %4, i32 noundef 1) #21
  %.not12 = icmp eq i32 %46, 0
  br i1 %.not12, label %49, label %47

47:                                               ; preds = %42
  %48 = call fastcc ptr @_(ptr noundef nonnull @.str.266)
  call void (ptr, ...) @die(ptr noundef %48) #22
  unreachable

49:                                               ; preds = %42, %3, %8, %40
  %.0 = phi i32 [ -1, %40 ], [ -1, %8 ], [ -1, %3 ], [ 0, %42 ]
  call void @llvm.lifetime.end.p0(i64 160, ptr nonnull %6) #21
  call void @llvm.lifetime.end.p0(i64 1120, ptr nonnull %5) #21
  call void @llvm.lifetime.end.p0(i64 8, ptr nonnull %4) #21
  ret i32 %.0
}